; Function Attrs: mustprogress nofree norecurse nosync nounwind willreturn memory(argmem: write) uwtable
define void @_ZN32pxrInternal_v0_24__pxrReserved__15HdSceneDelegate25GetRenderBufferDescriptorERKNS_7SdfPathE(ptr dead_on_unwind noalias writable writeonly sret(%"struct.pxrInternal_v0_24__pxrReserved__::HdRenderBufferDescriptor") align 4 captures(none) initializes((0, 17)) %0, ptr nonnull readnone align 8 captures(none) %1, ptr nonnull readnone align 4 captures(none) %2) unnamed_addr #6 align 2 {
  store i32 0, ptr %0, align 4
  %4 = getelementptr inbounds nuw i8, ptr %0, i64 4
  store i32 0, ptr %4, align 4
  %5 = getelementptr inbounds nuw i8, ptr %0, i64 8
  store i32 0, ptr %5, align 4
  %6 = getelementptr inbounds nuw i8, ptr %0, i64 12
  store i32 -1, ptr %6, align 4
  %7 = getelementptr inbounds nuw i8, ptr %0, i64 16
  store i8 0, ptr %7, align 4
  ret void
}